Certificate:
    Data:
        Version: 3 (0x2)
        Serial Number: 1648644389466078 (0x5db6eef31efde)
    Signature Algorithm: sha256WithRSAEncryption
        Issuer: C=IL, O=StartCom Ltd., OU=Secure Digital Certificate Signing, CN=StartCom Class 1 Primary Intermediate Server CA
        Validity
            Not Before: Jun 16 17:33:47 2015 GMT
            Not After : Jun 17 11:53:15 2016 GMT
        Subject: C=US, CN=conf.vovid.co/emailAddress=jbgledy@yahoo.com
        Subject Public Key Info:
            Public Key Algorithm: rsaEncryption
                Public-Key: (2048 bit)
                Modulus:
                    00:db:04:e4:de:4d:f7:24:03:17:92:5a:29:94:c2:
                    97:a9:90:06:a3:fb:bb:db:02:b0:a3:f7:1c:6e:48:
                    72:d4:16:93:da:34:b9:75:61:73:c6:cb:c7:25:0a:
                    4d:47:fd:e4:6b:8f:a9:13:39:76:c7:96:95:d1:91:
                    a2:e2:13:f9:c8:e4:3c:68:2f:e9:50:e4:0e:d1:13:
                    a5:99:23:1f:09:8c:6c:f9:8f:2c:b9:5c:5c:b4:4a:
                    12:5d:79:ff:59:23:32:e1:42:5b:9e:e6:40:9f:7e:
                    54:d6:67:18:24:63:cb:5d:19:c7:78:65:7d:7a:b5:
                    b2:c2:36:e3:67:11:45:c8:48:8a:de:45:1f:70:de:
                    eb:39:88:0b:78:47:d4:ef:98:4a:72:7e:4f:86:a3:
                    cc:b1:71:10:1b:ff:27:85:dd:3c:7d:df:49:de:7a:
                    ec:53:2f:f7:05:75:a7:b1:7f:05:18:31:4f:ca:c6:
                    11:76:3c:db:38:97:a0:c6:ac:75:98:fe:a8:04:a2:
                    43:87:b3:ee:72:71:bc:77:da:99:bf:36:78:92:c0:
                    09:83:82:70:21:83:98:85:1c:df:21:f9:6e:39:db:
                    de:1f:19:de:9d:ee:45:83:21:25:76:f4:68:61:82:
                    c3:f7:eb:30:0a:fc:8e:6e:7f:93:93:de:f4:4c:f5:
                    67:8d
                Exponent: 65537 (0x10001)
        X509v3 extensions:
            X509v3 Basic Constraints: 
                CA:FALSE
            X509v3 Key Usage: 
                Digital Signature, Key Encipherment, Key Agreement
            X509v3 Extended Key Usage: 
                TLS Web Server Authentication
            X509v3 Subject Key Identifier: 
                61:A3:FF:D9:AA:3C:7E:04:18:D4:FB:B4:BD:AB:83:E1:C1:51:DE:2D
            X509v3 Authority Key Identifier: 
                keyid:EB:42:34:D0:98:B0:AB:9F:F4:1B:6B:08:F7:CC:64:2E:EF:0E:2C:45

            X509v3 Subject Alternative Name: 
                DNS:conf.vovid.co, DNS:vovid.co
            X509v3 Certificate Policies: 
                Policy: 2.23.140.1.2.1
                Policy: 1.3.6.1.4.1.23223.1.2.3
                  CPS: http://www.startssl.com/policy.pdf
                  User Notice:
                    Organization: StartCom Certification Authority
                    Number: 1
                    Explicit Text: This certificate was issued according to the Class 1 Validation requirements of the StartCom CA policy, reliance only for the intended purpose in compliance of the relying party obligations.

            X509v3 CRL Distribution Points: 

                Full Name:
                  URI:http://crl.startssl.com/crt1-crl.crl

            Authority Information Access: 
                OCSP - URI:http://ocsp.startssl.com/sub/class1/server/ca
                CA Issuers - URI:http://aia.startssl.com/certs/sub.class1.server.ca.crt

            X509v3 Issuer Alternative Name: 
                URI:http://www.startssl.com/
    Signature Algorithm: sha256WithRSAEncryption
         33:0e:83:37:71:01:ad:2a:9a:02:fc:82:c1:ea:1c:33:ef:7a:
         e6:1e:b1:c6:a9:56:53:1d:4a:1e:9a:8b:63:be:31:f7:ba:7b:
         f2:25:05:36:ed:91:65:84:db:d3:90:b6:07:3d:71:5d:df:e2:
         6e:2f:6b:35:88:a2:8e:21:9c:69:4c:a3:87:bf:ff:f6:30:03:
         08:a5:e5:87:a3:2d:bb:2d:3f:29:d5:12:88:7f:46:c6:65:aa:
         7f:96:15:07:dd:b2:56:10:57:3c:4b:61:37:0c:57:d5:9e:f8:
         8f:b1:7b:eb:f0:35:1e:cf:24:76:a9:ff:4d:0c:df:23:29:1d:
         98:8c:81:50:a7:11:eb:32:4a:00:e9:2f:0b:d1:c0:e0:7f:34:
         86:9a:b4:34:ae:d3:2f:5e:2a:ed:b5:cb:04:c9:1b:6b:e5:9b:
         47:ff:f7:6e:83:ff:ad:19:45:a9:20:d4:b9:6c:a0:66:76:55:
         cd:9a:89:7a:7d:10:4c:ad:59:d3:70:cd:9e:5e:90:63:bf:86:
         45:87:da:0d:b8:0e:ef:f5:3e:3c:4f:b9:34:86:ed:39:c9:3f:
         c8:94:db:3b:82:76:17:81:af:31:91:69:87:3e:29:e5:a2:f2:
         91:a7:74:b3:67:00:f9:86:64:f9:df:03:30:e9:2a:97:7e:90:
         df:2e:7a:9c
-----BEGIN CERTIFICATE-----
MIIGMzCCBRugAwIBAgIHBdtu7zHv3jANBgkqhkiG9w0BAQsFADCBjDELMAkGA1UE
BhMCSUwxFjAUBgNVBAoTDVN0YXJ0Q29tIEx0ZC4xKzApBgNVBAsTIlNlY3VyZSBE
aWdpdGFsIENlcnRpZmljYXRlIFNpZ25pbmcxODA2BgNVBAMTL1N0YXJ0Q29tIENs
YXNzIDEgUHJpbWFyeSBJbnRlcm1lZGlhdGUgU2VydmVyIENBMB4XDTE1MDYxNjE3
MzM0N1oXDTE2MDYxNzExNTMxNVowRzELMAkGA1UEBhMCVVMxFjAUBgNVBAMTDWNv
bmYudm92aWQuY28xIDAeBgkqhkiG9w0BCQEWEWpiZ2xlZHlAeWFob28uY29tMIIB
IjANBgkqhkiG9w0BAQEFAAOCAQ8AMIIBCgKCAQEA2wTk3k33JAMXkloplMKXqZAG
o/u72wKwo/ccbkhy1BaT2jS5dWFzxsvHJQpNR/3ka4+pEzl2x5aV0ZGi4hP5yOQ8
aC/pUOQO0ROlmSMfCYxs+Y8suVxctEoSXXn/WSMy4UJbnuZAn35U1mcYJGPLXRnH
eGV9erWywjbjZxFFyEiK3kUfcN7rOYgLeEfU75hKcn5PhqPMsXEQG/8nhd08fd9J
3nrsUy/3BXWnsX8FGDFPysYRdjzbOJegxqx1mP6oBKJDh7PucnG8d9qZvzZ4ksAJ
g4JwIYOYhRzfIfluOdveHxnene5FgyEldvRoYYLD9+swCvyObn+Tk970TPVnjQID
AQABo4IC3DCCAtgwCQYDVR0TBAIwADALBgNVHQ8EBAMCA6gwEwYDVR0lBAwwCgYI
KwYBBQUHAwEwHQYDVR0OBBYEFGGj/9mqPH4EGNT7tL2rg+HBUd4tMB8GA1UdIwQY
MBaAFOtCNNCYsKuf9BtrCPfMZC7vDixFMCIGA1UdEQQbMBmCDWNvbmYudm92aWQu
Y2+CCHZvdmlkLmNvMIIBVgYDVR0gBIIBTTCCAUkwCAYGZ4EMAQIBMIIBOwYLKwYB
BAGBtTcBAgMwggEqMC4GCCsGAQUFBwIBFiJodHRwOi8vd3d3LnN0YXJ0c3NsLmNv
bS9wb2xpY3kucGRmMIH3BggrBgEFBQcCAjCB6jAnFiBTdGFydENvbSBDZXJ0aWZp
Y2F0aW9uIEF1dGhvcml0eTADAgEBGoG+VGhpcyBjZXJ0aWZpY2F0ZSB3YXMgaXNz
dWVkIGFjY29yZGluZyB0byB0aGUgQ2xhc3MgMSBWYWxpZGF0aW9uIHJlcXVpcmVt
ZW50cyBvZiB0aGUgU3RhcnRDb20gQ0EgcG9saWN5LCByZWxpYW5jZSBvbmx5IGZv
ciB0aGUgaW50ZW5kZWQgcHVycG9zZSBpbiBjb21wbGlhbmNlIG9mIHRoZSByZWx5
aW5nIHBhcnR5IG9ibGlnYXRpb25zLjA1BgNVHR8ELjAsMCqgKKAmhiRodHRwOi8v
Y3JsLnN0YXJ0c3NsLmNvbS9jcnQxLWNybC5jcmwwgY4GCCsGAQUFBwEBBIGBMH8w
OQYIKwYBBQUHMAGGLWh0dHA6Ly9vY3NwLnN0YXJ0c3NsLmNvbS9zdWIvY2xhc3Mx
L3NlcnZlci9jYTBCBggrBgEFBQcwAoY2aHR0cDovL2FpYS5zdGFydHNzbC5jb20v
Y2VydHMvc3ViLmNsYXNzMS5zZXJ2ZXIuY2EuY3J0MCMGA1UdEgQcMBqGGGh0dHA6
Ly93d3cuc3RhcnRzc2wuY29tLzANBgkqhkiG9w0BAQsFAAOCAQEAMw6DN3EBrSqa
AvyCweocM+965h6xxqlWUx1KHpqLY74x97p78iUFNu2RZYTb05C2Bz1xXd/ibi9r
NYiijiGcaUyjh7//9jADCKXlh6Mtuy0/KdUSiH9GxmWqf5YVB92yVhBXPEthNwxX
1Z74j7F76/A1Hs8kdqn/TQzfIykdmIyBUKcR6zJKAOkvC9HA4H80hpq0NK7TL14q
7bXLBMkba+WbR//3boP/rRlFqSDUuWygZnZVzZqJen0QTK1Z03DNnl6QY7+GRYfa
DbgO7/U+PE+5NIbtOck/yJTbO4J2F4GvMZFphz4p5aLykad0s2cA+YZk+d8DMOkq
l36Q3y56nA==
-----END CERTIFICATE-----
-----BEGIN RSA PRIVATE KEY-----
MIIEpAIBAAKCAQEA2wTk3k33JAMXkloplMKXqZAGo/u72wKwo/ccbkhy1BaT2jS5
dWFzxsvHJQpNR/3ka4+pEzl2x5aV0ZGi4hP5yOQ8aC/pUOQO0ROlmSMfCYxs+Y8s
uVxctEoSXXn/WSMy4UJbnuZAn35U1mcYJGPLXRnHeGV9erWywjbjZxFFyEiK3kUf
cN7rOYgLeEfU75hKcn5PhqPMsXEQG/8nhd08fd9J3nrsUy/3BXWnsX8FGDFPysYR
djzbOJegxqx1mP6oBKJDh7PucnG8d9qZvzZ4ksAJg4JwIYOYhRzfIfluOdveHxne
ne5FgyEldvRoYYLD9+swCvyObn+Tk970TPVnjQIDAQABAoIBAQDVVMgEzNZMCoL8
N7xGvN/y9mmxcnLBWbZqjzjvJrxKXw92vGJkth6KZVS9fHJYDDJgnpbmNdO/hqq5
bWzFXwWvKri4FurgsrLH7aYgKniB2XkP/+hlSFS3+2o2CK2yyjk19me9t7L8Z5YF
HHgEgfvE3GZRnDGDw9WxnLsVWlqpQEj7Spwz2D7jdz1unMfXHroCAVbYn7iMBitX
DFX0KnoVZVIzscnYpdR2tK8BUrFN5Ca8RhHHLunnghQvDKTPgm1xAxe5uG1dHyGd
En7j7GPweJojCkgmCblHljwxeldUeExPAb0YRTLO+kQQl58+f/7Ez32UIZ4gdWOI
A3mybbeVAoGBAP+IeoM2qCZvgi6BvnbEq87JAs0wUU2iNFciTBSprtA6D8YBeMGn
gyR1U19pheT13GPkOMYjH80RvGGL1Smzm6OwaeKR/hIUjpxcdKrNMjxFY9UYdDX1
jLTaLxJ7adtgIMwf2lxXpY8HGvg4IZY3mS6sq5X4pthjbjyF4txkitNbAoGBANtr
Vi0VQcITR30d1DwsJABt7XKNemogZw/wUAa8HOmrMABfS+DpI4tNGLPrKsZniUxK
mUC7etQlAPQUX+CM+VEMjJ//w4H1n9pg4YENaPjI4F7+TjcnmQCDR9cmnelPZ1LC
QTBV07HgOeXdrq0p8Yz3GjtggvZ2BHRy5JLr4S03AoGAc6B3B165EcNNXev5mlZ+
A7DzYpOlhoKKOo9ba9IoNzK+pnNOCBrbfajVVAw0uRkDY/QGOKn2Ht4SpvUWPKt4
Fsah8xLqq5W/vkMby5nUTG99sBRDqZL123QK7ssHaGwECzmynixOzvyBGKaVlBqO
Zw9dCRydqra7UAmpUN7x7pcCgYBiskJeHwyoJpHmho9bzaMYClpfR6JDsHWLZtYo
YV9EADukPzlbXqMdWr182JAyFIpepcOPqYUTfd2S7MM/t0nCGjn7Ekm34GtaCHAG
46hPF9RNBmjaSFZ7M5ISBg3Lz2qzgCtgeYqynSCN9AxJWe+ML+49vSjLgcR5OOD1
8WIlOwKBgQCm/d0ob2fjf6dnj3PlEcWS6qvzjHIGETs40wyK6XumhPH9s6ysGVCW
ERNpSuCIb3c40gYrJiZmL0Q89p9dRBYWuazQr0ahy9FsEL/U3coeRbHfLjhutkBU
r3Dc8qrCMelMfYZWrLpHWn9jmKr4bInfMO+rbcWlzpn2dfo0sml27w==
-----END RSA PRIVATE KEY-----
-----BEGIN CERTIFICATE-----
MIIFYzCCA0ugAwIBAgIBOzANBgkqhkiG9w0BAQsFADBTMQswCQYDVQQGEwJJTDEW
MBQGA1UEChMNU3RhcnRDb20gTHRkLjEsMCoGA1UEAxMjU3RhcnRDb20gQ2VydGlm
aWNhdGlvbiBBdXRob3JpdHkgRzIwHhcNMTAwMTAxMDEwMDAxWhcNMzkxMjMxMjM1
OTAxWjBTMQswCQYDVQQGEwJJTDEWMBQGA1UEChMNU3RhcnRDb20gTHRkLjEsMCoG
A1UEAxMjU3RhcnRDb20gQ2VydGlmaWNhdGlvbiBBdXRob3JpdHkgRzIwggIiMA0G
CSqGSIb3DQEBAQUAA4ICDwAwggIKAoICAQC2iTZbB7cgNr2Cu+EWIAOVeq8Oo1XJ
JZlKxdBWQYeQTSFgpBSHO839sj60ZwNq7eEPS8CRhXBF4EKe3ikj1AENoBB5uNsD
vfOpL9HG4A/LnooUCri99lZi8cVytjIl2bLzvWXFDSxu1ZJvGIsAQRSCb0AgJnoo
D/Uefyf3lLE3PbfHkffiAez9lInhzG7TNtYKGXmu1zSCZf98Qru23QumNK9LYP5/
Q0kGi4xDuFby2X8hQxfqp0iVAXV16iulQ5XqFYSdCI0mblWbq9zSOdIxHWDirMxW
RST1HFSr7obdljKF+ExP6JV2tgXdNiNnvP8V4so75qbsO+wmETRIjfaAKxojAuuK
HDp2KntWFhxyKrOq42ClAJ8Em+JvHhRYW6Vsi1g8w7pOOlz34ZYrPu8HvKTlXcxN
nw3h3Kq74W4a7I/htkxNeXJdFzULHdfBR9qWJODQcqhaX2YtENwvKhOuJv4KHBnM
0D4LnMgJLvlblnpHnOl68wVQdJVznjAJ85eCXuaPOQgeWeU1FEIT/wCc976qUM/i
UUjXuG+v+E5+M5iSFGI6dWPPe/regjupuznixL0sAA7IF6wT700ljtizkC+p2il9
Ha90OrInwMEePnWjFqmveiJdnxMaz6eg6+OGCtP95paV1yPIN93EfKo2rJgaErHg
TuixO/XWb/Ew1wIDAQABo0IwQDAPBgNVHRMBAf8EBTADAQH/MA4GA1UdDwEB/wQE
AwIBBjAdBgNVHQ4EFgQUS8W0QGutHLOlHGVuRjaJhwUMDrYwDQYJKoZIhvcNAQEL
BQADggIBAHNXPyzVlTJ+N9uWkusZXn5T50HsEbZH77Xe7XRcxfGOSeD8bpkTzZ+K
2s06Ctg6Wgk/XzTQLwPSZh0avZyQN8gMjgdalEVGKua+etqhqaRpEpKwfTbURIfX
UfEpY9Z1zRbkJ4kd+MIySP3bmdCPX1R0zKxnNBFi2QwKN4fRoxdIjtIXHfbX/dtl
6/2o1PXWT6RbdejF0mCy2wl+JYt7ulKSnj7oxXehPOBKc2thz4bcQ///If4jXSRK
9dNtD2IEBVeC2m6kMyV5Sy5UGYvMLD0w6dEG/+gyRr61M3Z3qAFdlsHB1b6uJcDJ
HgoJIIihDsnzb02CVAAgp9KP5DlUFy6NHrgbuxu9mk47EDTcnIhT76IxW1hPkWLI
wpqazRVdOKnWvvgTtZ8SafJQYqz7Fzf07rh1Z2AQ+4NQ+US1dZxAF7L+/XldblhY
XzD8AK6vM8EOTmy6p6ahfzLbOOCxchcKK5HsamMm7YnUeMx0HgX4a/6ManY5Ka5l
IxKVCCIcl85bBu4M4ru8H0ST9tg4RQUh7eStqxK2A6RCLi3ECToDZ2mEmuFZkIoo
hdVddLHRDiBYmxOlsGOm7XtH/UVVMKTumtTm4ofvmMkyghEpIrwACjFeLQ/Ajulr
so8uBtjRkcfGEvRM/TAXw8HaOFvjqermobp573PYtlNXLfbQ4ddI
-----END CERTIFICATE-----

